; Function Attrs: nounwind uwtable
define internal i32 @php_stream_temp_flush(ptr nocapture noundef readonly %0) #0 {
  %2 = getelementptr inbounds i8, ptr %0, i64 8
  %3 = load ptr, ptr %2, align 8
  %4 = load ptr, ptr %3, align 8
  %.not = icmp eq ptr %4, null
  br i1 %.not, label %7, label %5

5:                                                ; preds = %1
  %6 = tail call i32 @_php_stream_flush(ptr noundef nonnull %4, i32 noundef 0) #20
  br label %7

7:                                                ; preds = %1, %5
  %8 = phi i32 [ %6, %5 ], [ -1, %1 ]
  ret i32 %8
}